; Function Attrs: alwaysinline norecurse nounwind uwtable
define internal void @_ZNK8LightGBM25KullbackLeiblerDivergence4EvalEPKdPKNS_17ObjectiveFunctionE.omp_outlined.102(ptr noalias noundef readonly captures(none) %0, ptr noalias readnone captures(none) %1, ptr noundef readonly captures(none) %2, ptr noundef nonnull readonly align 8 captures(none) dereferenceable(8) %3, ptr noundef nonnull readonly align 8 captures(none) dereferenceable(8) %4, ptr noundef nonnull align 8 captures(none) dereferenceable(8) %5) #15 personality ptr @__gxx_personality_v0 {
  %7 = alloca i32, align 4
  %8 = alloca i32, align 4
  %9 = alloca i32, align 4
  %10 = alloca i32, align 4
  %11 = alloca double, align 8
  %12 = alloca double, align 8
  %13 = alloca [1 x ptr], align 8
  %14 = getelementptr inbounds nuw i8, ptr %2, i64 8
  %15 = load i32, ptr %14, align 8, !tbaa !540
  %16 = icmp sgt i32 %15, 0
  br i1 %16, label %17, label %74

17:                                               ; preds = %6
  %18 = add nsw i32 %15, -1
  call void @llvm.lifetime.start.p0(i64 4, ptr nonnull %7) #16
  store i32 0, ptr %7, align 4, !tbaa !127
  call void @llvm.lifetime.start.p0(i64 4, ptr nonnull %8) #16
  store i32 %18, ptr %8, align 4, !tbaa !127
  call void @llvm.lifetime.start.p0(i64 4, ptr nonnull %9) #16
  store i32 1, ptr %9, align 4, !tbaa !127
  call void @llvm.lifetime.start.p0(i64 4, ptr nonnull %10) #16
  store i32 0, ptr %10, align 4, !tbaa !127
  call void @llvm.lifetime.start.p0(i64 8, ptr nonnull %11) #16
  store double 0.000000e+00, ptr %11, align 8, !tbaa !84
  %19 = load i32, ptr %0, align 4, !tbaa !127
  call void @__kmpc_for_static_init_4(ptr nonnull @1, i32 %19, i32 34, ptr nonnull %10, ptr nonnull %7, ptr nonnull %8, ptr nonnull %9, i32 1, i32 1)
  %20 = load i32, ptr %8, align 4, !tbaa !127
  %21 = call i32 @llvm.smin.i32(i32 %20, i32 %18)
  store i32 %21, ptr %8, align 4, !tbaa !127
  %22 = load i32, ptr %7, align 4, !tbaa !127
  %.not17 = icmp sgt i32 %22, %21
  br i1 %.not17, label %._crit_edge, label %.lr.ph

.lr.ph:                                           ; preds = %17
  %23 = getelementptr inbounds nuw i8, ptr %2, i64 16
  %24 = getelementptr inbounds nuw i8, ptr %2, i64 24
  %25 = sext i32 %22 to i64
  br label %26

26:                                               ; preds = %.lr.ph, %_ZN8LightGBML8XentLossEfd.exit
  %27 = phi double [ 0.000000e+00, %.lr.ph ], [ %62, %_ZN8LightGBML8XentLossEfd.exit ]
  %indvars.iv = phi i64 [ %25, %.lr.ph ], [ %indvars.iv.next, %_ZN8LightGBML8XentLossEfd.exit ]
  call void @llvm.lifetime.start.p0(i64 8, ptr nonnull %12) #16
  store double 0.000000e+00, ptr %12, align 8, !tbaa !84
  %28 = load ptr, ptr %3, align 8, !tbaa !82
  %29 = load ptr, ptr %4, align 8, !tbaa !81
  %30 = getelementptr inbounds double, ptr %29, i64 %indvars.iv
  %31 = load ptr, ptr %28, align 8, !tbaa !15
  %32 = getelementptr inbounds nuw i8, ptr %31, i64 136
  %33 = load ptr, ptr %32, align 8
  invoke void %33(ptr noundef nonnull align 8 dereferenceable(8) %28, ptr noundef %30, ptr noundef nonnull %12)
          to label %34 unwind label %75

34:                                               ; preds = %26
  %35 = load ptr, ptr %23, align 8, !tbaa !542
  %36 = getelementptr inbounds float, ptr %35, i64 %indvars.iv
  %37 = load float, ptr %36, align 4, !tbaa !78
  %38 = load double, ptr %12, align 8, !tbaa !84
  %39 = fpext float %37 to double
  %40 = fcmp ogt double %38, 0x3D719799812DEA11
  br i1 %40, label %41, label %44

41:                                               ; preds = %34
  %42 = call double @llvm.log.f64(double %38), !tbaa !127
  %43 = fmul double %42, %39
  br label %46

44:                                               ; preds = %34
  %45 = fmul double %39, 0xC03BA18A998FFFA0
  br label %46

46:                                               ; preds = %44, %41
  %.012.i = phi double [ %43, %41 ], [ %45, %44 ]
  %47 = fsub float 1.000000e+00, %37
  %48 = fpext float %47 to double
  %49 = fsub double 1.000000e+00, %38
  %50 = fcmp ogt double %49, 0x3D719799812DEA11
  br i1 %50, label %51, label %54

51:                                               ; preds = %46
  %52 = call double @llvm.log.f64(double %49), !tbaa !127
  %53 = fmul double %52, %48
  br label %_ZN8LightGBML8XentLossEfd.exit

54:                                               ; preds = %46
  %55 = fmul double %48, 0xC03BA18A998FFFA0
  br label %_ZN8LightGBML8XentLossEfd.exit

_ZN8LightGBML8XentLossEfd.exit:                   ; preds = %51, %54
  %.0.i = phi double [ %53, %51 ], [ %55, %54 ]
  %56 = fadd double %.012.i, %.0.i
  %57 = fneg double %56
  %58 = load ptr, ptr %24, align 8, !tbaa !543
  %59 = getelementptr inbounds float, ptr %58, i64 %indvars.iv
  %60 = load float, ptr %59, align 4, !tbaa !78
  %61 = fpext float %60 to double
  %62 = call double @llvm.fmuladd.f64(double %57, double %61, double %27)
  store double %62, ptr %11, align 8, !tbaa !84
  call void @llvm.lifetime.end.p0(i64 8, ptr nonnull %12) #16
  %indvars.iv.next = add nsw i64 %indvars.iv, 1
  %63 = load i32, ptr %8, align 4, !tbaa !127
  %64 = sext i32 %63 to i64
  %.not.not = icmp slt i64 %indvars.iv, %64
  br i1 %.not.not, label %26, label %._crit_edge

._crit_edge:                                      ; preds = %_ZN8LightGBML8XentLossEfd.exit, %17
  call void @__kmpc_for_static_fini(ptr nonnull @1, i32 %19)
  store ptr %11, ptr %13, align 8
  %65 = call i32 @__kmpc_reduce_nowait(ptr nonnull @2, i32 %19, i32 1, i64 8, ptr nonnull %13, ptr nonnull @_ZNK8LightGBM25KullbackLeiblerDivergence4EvalEPKdPKNS_17ObjectiveFunctionE.omp_outlined.102.omp.reduction.reduction_func, ptr nonnull @.gomp_critical_user_.reduction.var)
  switch i32 %65, label %73 [
    i32 1, label %66
    i32 2, label %70
  ]

66:                                               ; preds = %._crit_edge
  %67 = load double, ptr %5, align 8, !tbaa !84
  %68 = load double, ptr %11, align 8, !tbaa !84
  %69 = fadd double %67, %68
  store double %69, ptr %5, align 8, !tbaa !84
  call void @__kmpc_end_reduce_nowait(ptr nonnull @2, i32 %19, ptr nonnull @.gomp_critical_user_.reduction.var)
  br label %73

70:                                               ; preds = %._crit_edge
  %71 = load double, ptr %11, align 8, !tbaa !84
  %72 = atomicrmw fadd ptr %5, double %71 monotonic, align 8
  br label %73

73:                                               ; preds = %70, %66, %._crit_edge
  call void @llvm.lifetime.end.p0(i64 8, ptr nonnull %11) #16
  call void @llvm.lifetime.end.p0(i64 4, ptr nonnull %10) #16
  call void @llvm.lifetime.end.p0(i64 4, ptr nonnull %9) #16
  call void @llvm.lifetime.end.p0(i64 4, ptr nonnull %8) #16
  call void @llvm.lifetime.end.p0(i64 4, ptr nonnull %7) #16
  br label %74

74:                                               ; preds = %73, %6
  ret void

75:                                               ; preds = %26
  %76 = landingpad { ptr, i32 }
          catch ptr null
  %77 = extractvalue { ptr, i32 } %76, 0
  call void @__clang_call_terminate(ptr %77) #35
  unreachable
}